; ModuleID = '44/1294.c'
source_filename = "44/1294.c"
target datalayout = "e-m:e-p270:32:32-p271:32:32-p272:64:64-i64:64-f80:128-n8:16:32:64-S128"
target triple = "x86_64-pc-linux-gnu"

@.str = private unnamed_addr constant [3 x i8] c"%d\00", align 1
@.str.1 = private unnamed_addr constant [4 x i8] c"%d\0A\00", align 1

; Function Attrs: noinline nounwind uwtable
define dso_local i32 @change(i32 %0) #0 {
  %2 = alloca i32, align 4
  %3 = alloca i32, align 4
  %4 = alloca i32, align 4
  store i32 %0, i32* %2, align 4
  store i32 0, i32* %3, align 4
  store i32 0, i32* %4, align 4
  br label %5

5:                                                ; preds = %8, %1
  %6 = load i32, i32* %2, align 4
  %7 = icmp ne i32 %6, 0
  br i1 %7, label %8, label %18

8:                                                ; preds = %5
  %9 = load i32, i32* %3, align 4
  %10 = mul nsw i32 %9, 10
  %11 = load i32, i32* %2, align 4
  %12 = srem i32 %11, 10
  %13 = add nsw i32 %10, %12
  store i32 %13, i32* %3, align 4
  %14 = load i32, i32* %2, align 4
  %15 = sdiv i32 %14, 10
  store i32 %15, i32* %2, align 4
  %16 = load i32, i32* %4, align 4
  %17 = add nsw i32 %16, 1
  store i32 %17, i32* %4, align 4
  br label %5

18:                                               ; preds = %5
  %19 = load i32, i32* %3, align 4
  ret i32 %19
}

; Function Attrs: noinline nounwind uwtable
define dso_local void @main() #0 {
  %1 = alloca i32, align 4
  %2 = alloca [6 x i32], align 16
  store i32 0, i32* %1, align 4
  br label %3

3:                                                ; preds = %11, %0
  %4 = load i32, i32* %1, align 4
  %5 = icmp slt i32 %4, 6
  br i1 %5, label %6, label %14

6:                                                ; preds = %3
  %7 = load i32, i32* %1, align 4
  %8 = sext i32 %7 to i64
  %9 = getelementptr inbounds [6 x i32], [6 x i32]* %2, i64 0, i64 %8
  %10 = call i32 (i8*, ...) @__isoc99_scanf(i8* getelementptr inbounds ([3 x i8], [3 x i8]* @.str, i64 0, i64 0), i32* %9)
  br label %11

11:                                               ; preds = %6
  %12 = load i32, i32* %1, align 4
  %13 = add nsw i32 %12, 1
  store i32 %13, i32* %1, align 4
  br label %3

14:                                               ; preds = %3
  store i32 0, i32* %1, align 4
  br label %15

15:                                               ; preds = %25, %14
  %16 = load i32, i32* %1, align 4
  %17 = icmp slt i32 %16, 6
  br i1 %17, label %18, label %28

18:                                               ; preds = %15
  %19 = load i32, i32* %1, align 4
  %20 = sext i32 %19 to i64
  %21 = getelementptr inbounds [6 x i32], [6 x i32]* %2, i64 0, i64 %20
  %22 = load i32, i32* %21, align 4
  %23 = call i32 @change(i32 %22)
  %24 = call i32 (i8*, ...) @printf(i8* getelementptr inbounds ([4 x i8], [4 x i8]* @.str.1, i64 0, i64 0), i32 %23)
  br label %25

25:                                               ; preds = %18
  %26 = load i32, i32* %1, align 4
  %27 = add nsw i32 %26, 1
  store i32 %27, i32* %1, align 4
  br label %15

28:                                               ; preds = %15
  ret void
}

declare dso_local i32 @__isoc99_scanf(i8*, ...) #1

declare dso_local i32 @printf(i8*, ...) #1


!llvm.module.flags = !{!0}
!llvm.ident = !{!1}

!0 = !{i32 1, !"wchar_size", i32 4}
!1 = !{!"clang version 10.0.0-4ubuntu1 "}
